; Function Attrs: mustprogress nofree norecurse nosync nounwind memory(argmem: readwrite) uwtable
define internal fastcc void @_ZN10OpenSubdiv6v3_6_03Far8internal12_GLOBAL__N_128adjustBSplineBoundaryWeightsIdEEviPT_(i32 noundef %0, ptr nocapture noundef %1) unnamed_addr #2 {
  %3 = and i32 %0, 1
  %.not = icmp eq i32 %3, 0
  br i1 %.not, label %.loopexit62, label %.preheader61

.preheader61:                                     ; preds = %2, %.preheader61
  %indvars.iv = phi i64 [ %indvars.iv.next, %.preheader61 ], [ 0, %2 ]
  %4 = getelementptr inbounds double, ptr %1, i64 %indvars.iv
  %5 = load double, ptr %4, align 8
  %6 = or disjoint i64 %indvars.iv, 8
  %7 = getelementptr inbounds double, ptr %1, i64 %6
  %8 = load double, ptr %7, align 8
  %9 = fsub double %8, %5
  store double %9, ptr %7, align 8
  %10 = or disjoint i64 %indvars.iv, 4
  %11 = getelementptr inbounds double, ptr %1, i64 %10
  %12 = load double, ptr %11, align 8
  %13 = tail call double @llvm.fmuladd.f64(double %5, double 2.000000e+00, double %12)
  store double %13, ptr %11, align 8
  store double 0.000000e+00, ptr %4, align 8
  %indvars.iv.next = add nuw nsw i64 %indvars.iv, 1
  %exitcond.not = icmp eq i64 %indvars.iv.next, 4
  br i1 %exitcond.not, label %.loopexit62, label %.preheader61, !llvm.loop !34

.loopexit62:                                      ; preds = %.preheader61, %2
  %14 = and i32 %0, 2
  %.not54 = icmp eq i32 %14, 0
  br i1 %.not54, label %.loopexit60, label %.preheader59

.preheader59:                                     ; preds = %.loopexit62, %.preheader59
  %indvars.iv68 = phi i64 [ %indvars.iv.next69, %.preheader59 ], [ 0, %.loopexit62 ]
  %15 = or disjoint i64 %indvars.iv68, 3
  %16 = getelementptr inbounds double, ptr %1, i64 %15
  %17 = load double, ptr %16, align 8
  %18 = or disjoint i64 %indvars.iv68, 1
  %19 = getelementptr inbounds double, ptr %1, i64 %18
  %20 = load double, ptr %19, align 8
  %21 = fsub double %20, %17
  store double %21, ptr %19, align 8
  %22 = or disjoint i64 %indvars.iv68, 2
  %23 = getelementptr inbounds double, ptr %1, i64 %22
  %24 = load double, ptr %23, align 8
  %25 = tail call double @llvm.fmuladd.f64(double %17, double 2.000000e+00, double %24)
  store double %25, ptr %23, align 8
  store double 0.000000e+00, ptr %16, align 8
  %indvars.iv.next69 = add nuw nsw i64 %indvars.iv68, 4
  %26 = icmp ult i64 %indvars.iv68, 12
  br i1 %26, label %.preheader59, label %.loopexit60, !llvm.loop !35

.loopexit60:                                      ; preds = %.preheader59, %.loopexit62
  %27 = and i32 %0, 4
  %.not55 = icmp eq i32 %27, 0
  br i1 %.not55, label %.loopexit58, label %.preheader57

.preheader57:                                     ; preds = %.loopexit60, %.preheader57
  %indvars.iv71 = phi i64 [ %indvars.iv.next72, %.preheader57 ], [ 0, %.loopexit60 ]
  %28 = or disjoint i64 %indvars.iv71, 12
  %29 = getelementptr inbounds double, ptr %1, i64 %28
  %30 = load double, ptr %29, align 8
  %31 = or disjoint i64 %indvars.iv71, 4
  %32 = getelementptr inbounds double, ptr %1, i64 %31
  %33 = load double, ptr %32, align 8
  %34 = fsub double %33, %30
  store double %34, ptr %32, align 8
  %35 = or disjoint i64 %indvars.iv71, 8
  %36 = getelementptr inbounds double, ptr %1, i64 %35
  %37 = load double, ptr %36, align 8
  %38 = tail call double @llvm.fmuladd.f64(double %30, double 2.000000e+00, double %37)
  store double %38, ptr %36, align 8
  store double 0.000000e+00, ptr %29, align 8
  %indvars.iv.next72 = add nuw nsw i64 %indvars.iv71, 1
  %exitcond74.not = icmp eq i64 %indvars.iv.next72, 4
  br i1 %exitcond74.not, label %.loopexit58, label %.preheader57, !llvm.loop !36

.loopexit58:                                      ; preds = %.preheader57, %.loopexit60
  %39 = and i32 %0, 8
  %.not56 = icmp eq i32 %39, 0
  br i1 %.not56, label %.loopexit, label %.preheader

.preheader:                                       ; preds = %.loopexit58, %.preheader
  %indvars.iv75 = phi i64 [ %indvars.iv.next76, %.preheader ], [ 0, %.loopexit58 ]
  %40 = getelementptr inbounds double, ptr %1, i64 %indvars.iv75
  %41 = load double, ptr %40, align 8
  %42 = or disjoint i64 %indvars.iv75, 2
  %43 = getelementptr inbounds double, ptr %1, i64 %42
  %44 = load double, ptr %43, align 8
  %45 = fsub double %44, %41
  store double %45, ptr %43, align 8
  %46 = or disjoint i64 %indvars.iv75, 1
  %47 = getelementptr inbounds double, ptr %1, i64 %46
  %48 = load double, ptr %47, align 8
  %49 = tail call double @llvm.fmuladd.f64(double %41, double 2.000000e+00, double %48)
  store double %49, ptr %47, align 8
  store double 0.000000e+00, ptr %40, align 8
  %indvars.iv.next76 = add nuw nsw i64 %indvars.iv75, 4
  %50 = icmp ult i64 %indvars.iv75, 12
  br i1 %50, label %.preheader, label %.loopexit, !llvm.loop !37

.loopexit:                                        ; preds = %.preheader, %.loopexit58
  ret void
}